(dp1
S'failed'
p2
(lp3
S'2'
asS'source_names'
p4
(lp5
S'tests/testBot.py'
p6
asS'ids'
p7
(dp8
I1
(S'/Users/Dima/faiProgramming/Python/beatthestreakBots/tests/testBot.py'
S'testBot'
p9
S'TestBot.test__reset_selections'
tp10
sI2
(S'/Users/Dima/faiProgramming/Python/beatthestreakBots/tests/testBot.py'
g9
S'TestBot.test_choose_players'
tp11
sI3
(S'/Users/Dima/faiProgramming/Python/beatthestreakBots/tests/testBot.py'
g9
S'TestBot.test_get_chosen_players'
tp12
ss.